target datalayout = "e-m:e-p270:32:32-p271:32:32-p272:64:64-i64:64-i128:128-f80:128-n8:16:32:64-S128"
target triple = "x86_64-pc-linux-gnu"

; Function Attrs: mustprogress nounwind uwtable
define hidden noundef zeroext i1 @_ZN10duckdb_re212re2_internal5ParseIhEEbPKcmPT_(ptr noundef %0, i64 noundef %1, ptr noundef %2) #0 {
  %4 = alloca i1, align 1
  %5 = alloca ptr, align 8
  %6 = alloca i64, align 8
  %7 = alloca ptr, align 8
  store ptr %0, ptr %5, align 8, !tbaa !31
  store i64 %1, ptr %6, align 8, !tbaa !83
  store ptr %2, ptr %7, align 8, !tbaa !31
  %8 = load i64, ptr %6, align 8, !tbaa !83
  %9 = icmp ne i64 %8, 1
  br i1 %9, label %10, label %11

10:                                               ; preds = %3
  store i1 false, ptr %4, align 1
  br label %20

11:                                               ; preds = %3
  %12 = load ptr, ptr %7, align 8, !tbaa !31
  %13 = icmp eq ptr %12, null
  br i1 %13, label %14, label %15

14:                                               ; preds = %11
  store i1 true, ptr %4, align 1
  br label %20

15:                                               ; preds = %11
  %16 = load ptr, ptr %5, align 8, !tbaa !31
  %17 = getelementptr inbounds i8, ptr %16, i64 0
  %18 = load i8, ptr %17, align 1, !tbaa !149
  %19 = load ptr, ptr %7, align 8, !tbaa !31
  store i8 %18, ptr %19, align 1, !tbaa !149
  store i1 true, ptr %4, align 1
  br label %20

20:                                               ; preds = %15, %14, %10
  %21 = load i1, ptr %4, align 1
  ret i1 %21
}