; Function Attrs: mustprogress nofree norecurse nosync nounwind willreturn memory(argmem: readwrite) uwtable
define hidden noundef zeroext i1 @_ZN10duckdb_re212re2_internal5ParseIhEEbPKcmPT_(ptr noundef readonly captures(none) %0, i64 noundef %1, ptr noundef writeonly captures(address_is_null) %2) local_unnamed_addr #15 {
  %.not = icmp eq i64 %1, 1
  %4 = icmp ne ptr %2, null
  %or.cond.not = and i1 %.not, %4
  br i1 %or.cond.not, label %5, label %7

5:                                                ; preds = %3
  %6 = load i8, ptr %0, align 1, !tbaa !26
  store i8 %6, ptr %2, align 1, !tbaa !26
  br label %7

7:                                                ; preds = %3, %5
  ret i1 %.not
}